target datalayout = "e-m:e-p270:32:32-p271:32:32-p272:64:64-i64:64-i128:128-f80:128-n8:16:32:64-S128"
target triple = "x86_64-unknown-linux-gnu"

%"class.icu_75::UObject" = type { ptr }
%struct.UParseError = type { i32, i32, [16 x i16], [16 x i16] }
%"class.icu_75::UnicodeString" = type { %"class.icu_75::Replaceable", %"union.icu_75::UnicodeString::StackBufferOrFields" }
%"class.icu_75::Replaceable" = type { %"class.icu_75::UObject" }
%"union.icu_75::UnicodeString::StackBufferOrFields" = type { %struct.anon.0, [32 x i8] }
%struct.anon.0 = type { i16, i32, i32, ptr }

@_ZTIN6icu_7512NumberFormatE = external constant ptr
@_ZTIN6icu_7513DecimalFormatE = external constant ptr

; Function Attrs: mustprogress uwtable
define void @unum_applyPattern_75(ptr noundef %fmt, i8 noundef signext %localized, ptr noundef %pattern, i32 noundef %patternLength, ptr noundef %parseError, ptr noundef %status) #0 personality ptr @__gxx_personality_v0 {
entry:
  %fmt.addr = alloca ptr, align 8
  %localized.addr = alloca i8, align 1
  %pattern.addr = alloca ptr, align 8
  %patternLength.addr = alloca i32, align 4
  %parseError.addr = alloca ptr, align 8
  %status.addr = alloca ptr, align 8
  %tStatus = alloca i32, align 4
  %tParseError = alloca %struct.UParseError, align 4
  %len = alloca i32, align 4
  %pat = alloca %"class.icu_75::UnicodeString", align 8
  %nf = alloca ptr, align 8
  %df = alloca ptr, align 8
  %exn.slot = alloca ptr, align 8
  %ehselector.slot = alloca i32, align 4
  %cleanup.dest.slot = alloca i32, align 4
  store ptr %fmt, ptr %fmt.addr, align 8
  store i8 %localized, ptr %localized.addr, align 1
  store ptr %pattern, ptr %pattern.addr, align 8
  store i32 %patternLength, ptr %patternLength.addr, align 4
  store ptr %parseError, ptr %parseError.addr, align 8
  store ptr %status, ptr %status.addr, align 8
  store i32 0, ptr %tStatus, align 4
  %0 = load ptr, ptr %parseError.addr, align 8
  %cmp = icmp eq ptr %0, null
  br i1 %cmp, label %if.then, label %if.end

if.then:                                          ; preds = %entry
  store ptr %tParseError, ptr %parseError.addr, align 8
  br label %if.end

if.end:                                           ; preds = %if.then, %entry
  %1 = load ptr, ptr %status.addr, align 8
  %cmp1 = icmp eq ptr %1, null
  br i1 %cmp1, label %if.then2, label %if.end3

if.then2:                                         ; preds = %if.end
  store ptr %tStatus, ptr %status.addr, align 8
  br label %if.end3

if.end3:                                          ; preds = %if.then2, %if.end
  %2 = load i32, ptr %patternLength.addr, align 4
  %cmp4 = icmp eq i32 %2, -1
  br i1 %cmp4, label %cond.true, label %cond.false

cond.true:                                        ; preds = %if.end3
  %3 = load ptr, ptr %pattern.addr, align 8
  %call = call i32 @u_strlen_75(ptr noundef %3)
  br label %cond.end

cond.false:                                       ; preds = %if.end3
  %4 = load i32, ptr %patternLength.addr, align 4
  br label %cond.end

cond.end:                                         ; preds = %cond.false, %cond.true
  %cond = phi i32 [ %call, %cond.true ], [ %4, %cond.false ]
  store i32 %cond, ptr %len, align 4
  %5 = load ptr, ptr %pattern.addr, align 8
  %6 = load i32, ptr %len, align 4
  %7 = load i32, ptr %len, align 4
  call void @_ZN6icu_7513UnicodeStringC1EPDsii(ptr noundef nonnull align 8 dereferenceable(64) %pat, ptr noundef %5, i32 noundef %6, i32 noundef %7)
  %8 = load ptr, ptr %fmt.addr, align 8
  store ptr %8, ptr %nf, align 8
  %9 = load ptr, ptr %nf, align 8
  %10 = icmp eq ptr %9, null
  br i1 %10, label %dynamic_cast.null, label %dynamic_cast.notnull

dynamic_cast.notnull:                             ; preds = %cond.end
  %11 = call ptr @__dynamic_cast(ptr %9, ptr @_ZTIN6icu_7512NumberFormatE, ptr @_ZTIN6icu_7513DecimalFormatE, i64 0) #8
  br label %dynamic_cast.end

dynamic_cast.null:                                ; preds = %cond.end
  br label %dynamic_cast.end

dynamic_cast.end:                                 ; preds = %dynamic_cast.null, %dynamic_cast.notnull
  %12 = phi ptr [ %11, %dynamic_cast.notnull ], [ null, %dynamic_cast.null ]
  store ptr %12, ptr %df, align 8
  %13 = load ptr, ptr %df, align 8
  %cmp5 = icmp ne ptr %13, null
  br i1 %cmp5, label %if.then6, label %if.else12

if.then6:                                         ; preds = %dynamic_cast.end
  %14 = load i8, ptr %localized.addr, align 1
  %tobool = icmp ne i8 %14, 0
  br i1 %tobool, label %if.then7, label %if.else

if.then7:                                         ; preds = %if.then6
  %15 = load ptr, ptr %df, align 8
  %16 = load ptr, ptr %parseError.addr, align 8
  %17 = load ptr, ptr %status.addr, align 8
  %vtable = load ptr, ptr %15, align 8
  %vfn = getelementptr inbounds ptr, ptr %vtable, i64 72
  %18 = load ptr, ptr %vfn, align 8
  invoke void %18(ptr noundef nonnull align 8 dereferenceable(368) %15, ptr noundef nonnull align 8 dereferenceable(64) %pat, ptr noundef nonnull align 4 dereferenceable(72) %16, ptr noundef nonnull align 4 dereferenceable(4) %17)
          to label %invoke.cont unwind label %lpad

invoke.cont:                                      ; preds = %if.then7
  br label %if.end11

lpad:                                             ; preds = %if.else, %if.then7
  %19 = landingpad { ptr, i32 }
          cleanup
  %20 = extractvalue { ptr, i32 } %19, 0
  store ptr %20, ptr %exn.slot, align 8
  %21 = extractvalue { ptr, i32 } %19, 1
  store i32 %21, ptr %ehselector.slot, align 4
  call void @_ZN6icu_7513UnicodeStringD1Ev(ptr noundef nonnull align 8 dereferenceable(64) %pat) #8
  br label %eh.resume

if.else:                                          ; preds = %if.then6
  %22 = load ptr, ptr %df, align 8
  %23 = load ptr, ptr %parseError.addr, align 8
  %24 = load ptr, ptr %status.addr, align 8
  %vtable8 = load ptr, ptr %22, align 8
  %vfn9 = getelementptr inbounds ptr, ptr %vtable8, i64 70
  %25 = load ptr, ptr %vfn9, align 8
  invoke void %25(ptr noundef nonnull align 8 dereferenceable(368) %22, ptr noundef nonnull align 8 dereferenceable(64) %pat, ptr noundef nonnull align 4 dereferenceable(72) %23, ptr noundef nonnull align 4 dereferenceable(4) %24)
          to label %invoke.cont10 unwind label %lpad

invoke.cont10:                                    ; preds = %if.else
  br label %if.end11

if.end11:                                         ; preds = %invoke.cont10, %invoke.cont
  br label %if.end13

if.else12:                                        ; preds = %dynamic_cast.end
  %26 = load ptr, ptr %status.addr, align 8
  store i32 16, ptr %26, align 4
  store i32 1, ptr %cleanup.dest.slot, align 4
  br label %cleanup

if.end13:                                         ; preds = %if.end11
  store i32 0, ptr %cleanup.dest.slot, align 4
  br label %cleanup

cleanup:                                          ; preds = %if.end13, %if.else12
  call void @_ZN6icu_7513UnicodeStringD1Ev(ptr noundef nonnull align 8 dereferenceable(64) %pat) #8
  %cleanup.dest = load i32, ptr %cleanup.dest.slot, align 4
  switch i32 %cleanup.dest, label %unreachable [
    i32 0, label %cleanup.cont
    i32 1, label %cleanup.cont
  ]

cleanup.cont:                                     ; preds = %cleanup, %cleanup
  ret void

eh.resume:                                        ; preds = %lpad
  %exn = load ptr, ptr %exn.slot, align 8
  %sel = load i32, ptr %ehselector.slot, align 4
  %lpad.val = insertvalue { ptr, i32 } poison, ptr %exn, 0
  %lpad.val14 = insertvalue { ptr, i32 } %lpad.val, i32 %sel, 1
  resume { ptr, i32 } %lpad.val14

unreachable:                                      ; preds = %cleanup
  unreachable
}