; Function Attrs: mustprogress uwtable
define void @unum_applyPattern_75(ptr noundef %fmt, i8 noundef signext %localized, ptr noundef %pattern, i32 noundef %patternLength, ptr noundef %parseError, ptr noundef %status) local_unnamed_addr #0 personality ptr @__gxx_personality_v0 {
entry:
  %tStatus = alloca i32, align 4
  %tParseError = alloca %struct.UParseError, align 4
  %pat = alloca %"class.icu_75::UnicodeString", align 8
  store i32 0, ptr %tStatus, align 4
  %cmp = icmp eq ptr %parseError, null
  %spec.select = select i1 %cmp, ptr %tParseError, ptr %parseError
  %cmp1 = icmp eq ptr %status, null
  %spec.store.select = select i1 %cmp1, ptr %tStatus, ptr %status
  %cmp4 = icmp eq i32 %patternLength, -1
  br i1 %cmp4, label %cond.true, label %cond.end

cond.true:                                        ; preds = %entry
  %call = tail call i32 @u_strlen_75(ptr noundef %pattern)
  br label %cond.end

cond.end:                                         ; preds = %entry, %cond.true
  %cond = phi i32 [ %call, %cond.true ], [ %patternLength, %entry ]
  call void @_ZN6icu_7513UnicodeStringC1EPDsii(ptr noundef nonnull align 8 dereferenceable(64) %pat, ptr noundef %pattern, i32 noundef %cond, i32 noundef %cond)
  %0 = icmp eq ptr %fmt, null
  br i1 %0, label %if.else12, label %dynamic_cast.end

dynamic_cast.end:                                 ; preds = %cond.end
  %1 = call ptr @__dynamic_cast(ptr nonnull %fmt, ptr nonnull @_ZTIN6icu_7512NumberFormatE, ptr nonnull @_ZTIN6icu_7513DecimalFormatE, i64 0) #10
  %cmp5.not = icmp eq ptr %1, null
  br i1 %cmp5.not, label %if.else12, label %if.then6

if.then6:                                         ; preds = %dynamic_cast.end
  %tobool.not = icmp eq i8 %localized, 0
  %vtable8 = load ptr, ptr %1, align 8
  %. = select i1 %tobool.not, i64 560, i64 576
  %vfn = getelementptr inbounds i8, ptr %vtable8, i64 %.
  %2 = load ptr, ptr %vfn, align 8
  invoke void %2(ptr noundef nonnull align 8 dereferenceable(368) %1, ptr noundef nonnull align 8 dereferenceable(64) %pat, ptr noundef nonnull align 4 dereferenceable(72) %spec.select, ptr noundef nonnull align 4 dereferenceable(4) %spec.store.select)
          to label %cleanup unwind label %lpad

lpad:                                             ; preds = %if.then6
  %3 = landingpad { ptr, i32 }
          cleanup
  call void @_ZN6icu_7513UnicodeStringD1Ev(ptr noundef nonnull align 8 dereferenceable(64) %pat) #10
  resume { ptr, i32 } %3

if.else12:                                        ; preds = %cond.end, %dynamic_cast.end
  store i32 16, ptr %spec.store.select, align 4
  br label %cleanup

cleanup:                                          ; preds = %if.then6, %if.else12
  call void @_ZN6icu_7513UnicodeStringD1Ev(ptr noundef nonnull align 8 dereferenceable(64) %pat) #10
  ret void
}